target datalayout = "e-m:e-p270:32:32-p271:32:32-p272:64:64-i64:64-i128:128-f80:128-n8:16:32:64-S128"
target triple = "x86_64-pc-linux-gnu"

; Function Attrs: mustprogress nounwind uwtable
define linkonce_odr hidden noundef ptr @_ZNKSt9_Any_data9_M_accessEv(ptr noundef nonnull align 8 dereferenceable(16) %0) #0 comdat align 2 {
  %2 = alloca ptr, align 8
  store ptr %0, ptr %2, align 8
  %3 = load ptr, ptr %2, align 8
  %4 = getelementptr inbounds [16 x i8], ptr %3, i64 0, i64 0
  ret ptr %4
}

; Function Attrs: mustprogress nounwind uwtable
define internal void @_ZSt13__invoke_implIvRMN12_GLOBAL__N_113StreamCheckerEKFvPKNS0_13FnDescriptionERKN5clang4ento9CallEventERNS6_14CheckerContextEEPKS1_JS4_S9_SB_EET_St21__invoke_memfun_derefOT0_OT1_DpOT2_(ptr noundef nonnull align 8 dereferenceable(16) %0, ptr noundef nonnull align 8 dereferenceable(8) %1, ptr noundef nonnull align 8 dereferenceable(8) %2, ptr noundef nonnull align 8 dereferenceable(72) %3, ptr noundef nonnull align 8 dereferenceable(81) %4) #0 {
  %6 = alloca ptr, align 8
  %7 = alloca ptr, align 8
  %8 = alloca ptr, align 8
  %9 = alloca ptr, align 8
  %10 = alloca ptr, align 8
  store ptr %0, ptr %6, align 8
  store ptr %1, ptr %7, align 8
  store ptr %2, ptr %8, align 8
  store ptr %3, ptr %9, align 8
  store ptr %4, ptr %10, align 8
  %11 = load ptr, ptr %7, align 8
  %12 = load ptr, ptr %11, align 8
  %13 = load ptr, ptr %6, align 8
  %14 = load { i64, i64 }, ptr %13, align 8
  %15 = extractvalue { i64, i64 } %14, 1
  %16 = getelementptr inbounds i8, ptr %12, i64 %15
  %17 = extractvalue { i64, i64 } %14, 0
  %18 = and i64 %17, 1
  %19 = icmp ne i64 %18, 0
  br i1 %19, label %20, label %25

20:                                               ; preds = %5
  %21 = load ptr, ptr %16, align 8
  %22 = sub i64 %17, 1
  %23 = getelementptr i8, ptr %21, i64 %22, !nosanitize !13
  %24 = load ptr, ptr %23, align 8, !nosanitize !13
  br label %27

25:                                               ; preds = %5
  %26 = inttoptr i64 %17 to ptr
  br label %27

27:                                               ; preds = %25, %20
  %28 = phi ptr [ %24, %20 ], [ %26, %25 ]
  %29 = load ptr, ptr %8, align 8
  %30 = load ptr, ptr %29, align 8
  %31 = load ptr, ptr %9, align 8
  %32 = load ptr, ptr %10, align 8
  call void %28(ptr noundef nonnull align 8 dereferenceable(936) %16, ptr noundef %30, ptr noundef nonnull align 8 dereferenceable(72) %31, ptr noundef nonnull align 8 dereferenceable(81) %32)
  ret void
}

; Function Attrs: mustprogress nounwind uwtable
define internal noundef nonnull align 8 dereferenceable(16) ptr @_ZNKSt9_Any_data9_M_accessIMN12_GLOBAL__N_113StreamCheckerEKFvPKNS1_13FnDescriptionERKN5clang4ento9CallEventERNS7_14CheckerContextEEEERKT_v(ptr noundef nonnull align 8 dereferenceable(16) %0) #0 align 2 {
  %2 = alloca ptr, align 8
  store ptr %0, ptr %2, align 8
  %3 = load ptr, ptr %2, align 8
  %4 = call noundef ptr @_ZNKSt9_Any_data9_M_accessEv(ptr noundef nonnull align 8 dereferenceable(16) %3) #18
  ret ptr %4
}

; Function Attrs: mustprogress nounwind uwtable
define internal void @_ZSt10__invoke_rIvRMN12_GLOBAL__N_113StreamCheckerEKFvPKNS0_13FnDescriptionERKN5clang4ento9CallEventERNS6_14CheckerContextEEJPKS1_S4_S9_SB_EENSt9enable_ifIX16is_invocable_r_vIT_T0_DpT1_EESI_E4typeEOSJ_DpOSK_(ptr noundef nonnull align 8 dereferenceable(16) %0, ptr noundef nonnull align 8 dereferenceable(8) %1, ptr noundef nonnull align 8 dereferenceable(8) %2, ptr noundef nonnull align 8 dereferenceable(72) %3, ptr noundef nonnull align 8 dereferenceable(81) %4) #0 {
  %6 = alloca ptr, align 8
  %7 = alloca ptr, align 8
  %8 = alloca ptr, align 8
  %9 = alloca ptr, align 8
  %10 = alloca ptr, align 8
  store ptr %0, ptr %6, align 8
  store ptr %1, ptr %7, align 8
  store ptr %2, ptr %8, align 8
  store ptr %3, ptr %9, align 8
  store ptr %4, ptr %10, align 8
  %11 = load ptr, ptr %6, align 8
  %12 = load ptr, ptr %7, align 8
  %13 = load ptr, ptr %8, align 8
  %14 = load ptr, ptr %9, align 8
  %15 = load ptr, ptr %10, align 8
  call void @_ZSt13__invoke_implIvRMN12_GLOBAL__N_113StreamCheckerEKFvPKNS0_13FnDescriptionERKN5clang4ento9CallEventERNS6_14CheckerContextEEPKS1_JS4_S9_SB_EET_St21__invoke_memfun_derefOT0_OT1_DpOT2_(ptr noundef nonnull align 8 dereferenceable(16) %11, ptr noundef nonnull align 8 dereferenceable(8) %12, ptr noundef nonnull align 8 dereferenceable(8) %13, ptr noundef nonnull align 8 dereferenceable(72) %14, ptr noundef nonnull align 8 dereferenceable(81) %15)
  ret void
}

; Function Attrs: mustprogress nounwind uwtable
define internal noundef ptr @_ZNSt14_Function_base13_Base_managerIMN12_GLOBAL__N_113StreamCheckerEKFvPKNS1_13FnDescriptionERKN5clang4ento9CallEventERNS7_14CheckerContextEEE14_M_get_pointerERKSt9_Any_data(ptr noundef nonnull align 8 dereferenceable(16) %0) #0 align 2 {
  %2 = alloca ptr, align 8
  %3 = alloca ptr, align 8
  store ptr %0, ptr %2, align 8
  %4 = load ptr, ptr %2, align 8
  %5 = call noundef nonnull align 8 dereferenceable(16) ptr @_ZNKSt9_Any_data9_M_accessIMN12_GLOBAL__N_113StreamCheckerEKFvPKNS1_13FnDescriptionERKN5clang4ento9CallEventERNS7_14CheckerContextEEEERKT_v(ptr noundef nonnull align 8 dereferenceable(16) %4) #18
  store ptr %5, ptr %3, align 8
  %6 = load ptr, ptr %3, align 8
  ret ptr %6
}

; Function Attrs: mustprogress nounwind uwtable
define internal void @_ZNSt17_Function_handlerIFvPKN12_GLOBAL__N_113StreamCheckerEPKNS0_13FnDescriptionERKN5clang4ento9CallEventERNS8_14CheckerContextEEMS1_KFvS6_SB_SD_EE9_M_invokeERKSt9_Any_dataOS3_OS6_SB_SD_(ptr noundef nonnull align 8 dereferenceable(16) %0, ptr noundef nonnull align 8 dereferenceable(8) %1, ptr noundef nonnull align 8 dereferenceable(8) %2, ptr noundef nonnull align 8 dereferenceable(72) %3, ptr noundef nonnull align 8 dereferenceable(81) %4) #0 align 2 {
  %6 = alloca ptr, align 8
  %7 = alloca ptr, align 8
  %8 = alloca ptr, align 8
  %9 = alloca ptr, align 8
  %10 = alloca ptr, align 8
  store ptr %0, ptr %6, align 8
  store ptr %1, ptr %7, align 8
  store ptr %2, ptr %8, align 8
  store ptr %3, ptr %9, align 8
  store ptr %4, ptr %10, align 8
  %11 = load ptr, ptr %6, align 8
  %12 = call noundef ptr @_ZNSt14_Function_base13_Base_managerIMN12_GLOBAL__N_113StreamCheckerEKFvPKNS1_13FnDescriptionERKN5clang4ento9CallEventERNS7_14CheckerContextEEE14_M_get_pointerERKSt9_Any_data(ptr noundef nonnull align 8 dereferenceable(16) %11) #18
  %13 = load ptr, ptr %7, align 8
  %14 = load ptr, ptr %8, align 8
  %15 = load ptr, ptr %9, align 8
  %16 = load ptr, ptr %10, align 8
  call void @_ZSt10__invoke_rIvRMN12_GLOBAL__N_113StreamCheckerEKFvPKNS0_13FnDescriptionERKN5clang4ento9CallEventERNS6_14CheckerContextEEJPKS1_S4_S9_SB_EENSt9enable_ifIX16is_invocable_r_vIT_T0_DpT1_EESI_E4typeEOSJ_DpOSK_(ptr noundef nonnull align 8 dereferenceable(16) %12, ptr noundef nonnull align 8 dereferenceable(8) %13, ptr noundef nonnull align 8 dereferenceable(8) %14, ptr noundef nonnull align 8 dereferenceable(72) %15, ptr noundef nonnull align 8 dereferenceable(81) %16)
  ret void
}