; Function Attrs: mustprogress nounwind uwtable
define internal void @_ZNSt17_Function_handlerIFvPKN12_GLOBAL__N_113StreamCheckerEPKNS0_13FnDescriptionERKN5clang4ento9CallEventERNS8_14CheckerContextEEMS1_KFvS6_SB_SD_EE9_M_invokeERKSt9_Any_dataOS3_OS6_SB_SD_(ptr noundef nonnull readonly align 8 captures(none) dereferenceable(16) %0, ptr noundef nonnull readonly align 8 captures(none) dereferenceable(8) %1, ptr noundef nonnull readonly align 8 captures(none) dereferenceable(8) %2, ptr noundef nonnull align 8 dereferenceable(72) %3, ptr noundef nonnull align 8 dereferenceable(81) %4) #2 align 2 {
  %.val = load i64, ptr %0, align 8
  %6 = getelementptr inbounds nuw i8, ptr %0, i64 8
  %.val5 = load i64, ptr %6, align 8
  %.val6 = load ptr, ptr %1, align 8
  %.val7 = load ptr, ptr %2, align 8
  %7 = getelementptr inbounds i8, ptr %.val6, i64 %.val5
  %8 = and i64 %.val, 1
  %.not.i.i = icmp eq i64 %8, 0
  br i1 %.not.i.i, label %14, label %9

9:                                                ; preds = %5
  %10 = load ptr, ptr %7, align 8
  %11 = getelementptr i8, ptr %10, i64 %.val
  %12 = getelementptr i8, ptr %11, i64 -1
  %13 = load ptr, ptr %12, align 8, !nosanitize !20
  br label %_ZSt10__invoke_rIvRMN12_GLOBAL__N_113StreamCheckerEKFvPKNS0_13FnDescriptionERKN5clang4ento9CallEventERNS6_14CheckerContextEEJPKS1_S4_S9_SB_EENSt9enable_ifIX16is_invocable_r_vIT_T0_DpT1_EESI_E4typeEOSJ_DpOSK_.exit

14:                                               ; preds = %5
  %15 = inttoptr i64 %.val to ptr
  br label %_ZSt10__invoke_rIvRMN12_GLOBAL__N_113StreamCheckerEKFvPKNS0_13FnDescriptionERKN5clang4ento9CallEventERNS6_14CheckerContextEEJPKS1_S4_S9_SB_EENSt9enable_ifIX16is_invocable_r_vIT_T0_DpT1_EESI_E4typeEOSJ_DpOSK_.exit

_ZSt10__invoke_rIvRMN12_GLOBAL__N_113StreamCheckerEKFvPKNS0_13FnDescriptionERKN5clang4ento9CallEventERNS6_14CheckerContextEEJPKS1_S4_S9_SB_EENSt9enable_ifIX16is_invocable_r_vIT_T0_DpT1_EESI_E4typeEOSJ_DpOSK_.exit: ; preds = %9, %14
  %16 = phi ptr [ %13, %9 ], [ %15, %14 ]
  tail call void %16(ptr noundef nonnull align 8 dereferenceable(936) %7, ptr noundef %.val7, ptr noundef nonnull align 8 dereferenceable(72) %3, ptr noundef nonnull align 8 dereferenceable(81) %4) #21
  ret void
}